(dp0
S'numplayers'
p1
I6
sS'player'
p2
(dp3
I1
(dp4
S'stock'
p5
(dp6
S'Worldwide'
p7
I0
sS'Festival'
p8
I0
sS'Imperial'
p9
I0
sS'Continental'
p10
I0
sS'American'
p11
I0
sS'Tower'
p12
I0
sS'Luxor'
p13
I0
ssS'tilerack'
p14
(lp15
S'd6'
p16
aS'b5'
p17
aS'g2'
p18
aS'i12'
p19
aS'i7'
p20
aS'g9'
p21
asS'cash'
p22
I6000
ssI2
(dp23
g5
(dp24
g7
I0
sg8
I0
sg9
I0
sg10
I0
sg11
I0
sg12
I0
sg13
I0
ssg14
(lp25
S'h4'
p26
aS'b4'
p27
aS'i8'
p28
aS'h10'
p29
aS'a5'
p30
aS'c8'
p31
asg22
I6000
ssI3
(dp32
g5
(dp33
g7
I0
sg8
I0
sg9
I0
sg10
I0
sg11
I0
sg12
I0
sg13
I0
ssg14
(lp34
S'i2'
p35
aS'e9'
p36
aS'i4'
p37
aS'c7'
p38
aS'h5'
p39
aS'b1'
p40
asg22
I6000
ssI4
(dp41
g5
(dp42
g7
I0
sg8
I0
sg9
I0
sg10
I0
sg11
I0
sg12
I0
sg13
I0
ssg14
(lp43
S'b8'
p44
aS'f3'
p45
aS'e8'
p46
aS'a2'
p47
aS'g8'
p48
aS'b2'
p49
asg22
I6000
ssI5
(dp50
g5
(dp51
g7
I0
sg8
I0
sg9
I0
sg10
I0
sg11
I0
sg12
I0
sg13
I0
ssg14
(lp52
S'g6'
p53
aS'g11'
p54
aS'i5'
p55
aS'f2'
p56
aS'a4'
p57
aS'g3'
p58
asg22
I6000
ssI6
(dp59
g5
(dp60
g7
I0
sg8
I0
sg9
I0
sg10
I0
sg11
I0
sg12
I0
sg13
I4
ssg14
(lp61
S'g7'
p62
aS'h6'
p63
aS'h12'
p64
aS'c5'
p65
aS'd12'
p66
aS'd2'
p67
asg22
I5400
sssS'grid'
p68
(dp69
S'd8'
p70
(dp71
S'chain'
p72
I0
sS'filled'
p73
I0
ssS'd9'
p74
(dp75
g72
I0
sg73
I0
ssg16
(dp76
g72
I0
sg73
I0
ssS'd7'
p77
(dp78
g72
I0
sg73
I0
ssS'd4'
p79
(dp80
g72
S'Luxor'
p81
sg73
I1
ssS'd5'
p82
(dp83
g72
I0
sg73
I0
ssg67
(dp84
g72
I0
sg73
I0
ssS'd3'
p85
(dp86
g72
g81
sg73
I1
ssS'd1'
p87
(dp88
g72
I0
sg73
I0
ssS'e11'
p89
(dp90
g72
I0
sg73
I0
ssS'e10'
p91
(dp92
g72
I0
sg73
I0
ssS'e12'
p93
(dp94
g72
I0
sg73
I0
ssS'c12'
p95
(dp96
g72
I0
sg73
I0
ssS'c11'
p97
(dp98
g72
I0
sg73
I0
ssS'c10'
p99
(dp100
g72
I0
sg73
I0
ssg62
(dp101
g72
I0
sg73
I0
ssg53
(dp102
g72
I0
sg73
I0
ssS'g5'
p103
(dp104
g72
I0
sg73
I0
ssS'g4'
p105
(dp106
g72
I0
sg73
I0
ssg58
(dp107
g72
I0
sg73
I0
ssg18
(dp108
g72
I0
sg73
I0
ssS'g1'
p109
(dp110
g72
I0
sg73
I0
ssg21
(dp111
g72
I0
sg73
I0
ssg48
(dp112
g72
I0
sg73
I0
ssg27
(dp113
g72
I0
sg73
I0
ssg17
(dp114
g72
I0
sg73
I0
ssS'b6'
p115
(dp116
g72
I0
sg73
I0
ssS'b7'
p117
(dp118
g72
I0
sg73
I0
ssg40
(dp119
g72
I0
sg73
I0
ssg49
(dp120
g72
I0
sg73
I0
ssS'b3'
p121
(dp122
g72
I0
sg73
I0
ssg44
(dp123
g72
I0
sg73
I0
ssS'b9'
p124
(dp125
g72
I0
sg73
I0
ssg36
(dp126
g72
I0
sg73
I0
ssg46
(dp127
g72
I0
sg73
I0
ssS'e5'
p128
(dp129
g72
I0
sg73
I0
ssS'e4'
p130
(dp131
g72
I0
sg73
I0
ssS'e7'
p132
(dp133
g72
I0
sg73
I0
ssS'e6'
p134
(dp135
g72
I0
sg73
I0
ssS'e1'
p136
(dp137
g72
I0
sg73
I0
ssS'e3'
p138
(dp139
g72
I0
sg73
I0
ssS'e2'
p140
(dp141
g72
I0
sg73
I0
ssS'h8'
p142
(dp143
g72
I0
sg73
I0
ssS'h9'
p144
(dp145
g72
I0
sg73
I0
ssS'h2'
p146
(dp147
g72
I0
sg73
I0
ssS'h3'
p148
(dp149
g72
I0
sg73
I0
ssS'h1'
p150
(dp151
g72
I0
sg73
I0
ssg63
(dp152
g72
I0
sg73
I0
ssS'h7'
p153
(dp154
g72
I0
sg73
I0
ssg26
(dp155
g72
I0
sg73
I0
ssg39
(dp156
g72
I0
sg73
I0
ssS'c9'
p157
(dp158
g72
I0
sg73
I0
ssg31
(dp159
g72
I0
sg73
I0
ssS'c3'
p160
(dp161
g72
I0
sg73
I0
ssS'c2'
p162
(dp163
g72
I0
sg73
I0
ssS'c1'
p164
(dp165
g72
I0
sg73
I0
ssg38
(dp166
g72
I0
sg73
I0
ssS'c6'
p167
(dp168
g72
I0
sg73
I1
ssg65
(dp169
g72
I0
sg73
I0
ssS'c4'
p170
(dp171
g72
I0
sg73
I0
ssg29
(dp172
g72
I0
sg73
I0
ssS'h11'
p173
(dp174
g72
I0
sg73
I0
ssg64
(dp175
g72
I0
sg73
I0
ssS'f12'
p176
(dp177
g72
I0
sg73
I0
ssS'f10'
p178
(dp179
g72
I0
sg73
I0
ssS'f11'
p180
(dp181
g72
I0
sg73
I0
ssS'f1'
p182
(dp183
g72
I0
sg73
I0
ssg56
(dp184
g72
I0
sg73
I0
ssg45
(dp185
g72
I0
sg73
I0
ssS'f4'
p186
(dp187
g72
I0
sg73
I0
ssS'f5'
p188
(dp189
g72
I0
sg73
I0
ssS'f6'
p190
(dp191
g72
I0
sg73
I0
ssS'f7'
p192
(dp193
g72
I0
sg73
I0
ssS'f8'
p194
(dp195
g72
I0
sg73
I1
ssS'f9'
p196
(dp197
g72
I0
sg73
I0
ssS'd10'
p198
(dp199
g72
I0
sg73
I0
ssS'd11'
p200
(dp201
g72
I0
sg73
I0
ssg66
(dp202
g72
I0
sg73
I0
ssS'b12'
p203
(dp204
g72
I0
sg73
I0
ssS'b10'
p205
(dp206
g72
I0
sg73
I0
ssS'b11'
p207
(dp208
g72
I0
sg73
I0
ssS'i9'
p209
(dp210
g72
I0
sg73
I0
ssg28
(dp211
g72
I0
sg73
I0
ssS'a11'
p212
(dp213
g72
I0
sg73
I0
ssS'a10'
p214
(dp215
g72
I0
sg73
I0
ssS'a12'
p216
(dp217
g72
I0
sg73
I0
ssS'i1'
p218
(dp219
g72
I0
sg73
I0
ssS'i3'
p220
(dp221
g72
I0
sg73
I0
ssg35
(dp222
g72
I0
sg73
I0
ssg55
(dp223
g72
I0
sg73
I0
ssg37
(dp224
g72
I0
sg73
I0
ssg20
(dp225
g72
I0
sg73
I0
ssS'i6'
p226
(dp227
g72
I0
sg73
I0
ssS'a1'
p228
(dp229
g72
I0
sg73
I0
ssS'a3'
p230
(dp231
g72
I0
sg73
I0
ssg47
(dp232
g72
I0
sg73
I0
ssg30
(dp233
g72
I0
sg73
I0
ssg57
(dp234
g72
I0
sg73
I0
ssS'a7'
p235
(dp236
g72
I0
sg73
I0
ssS'a6'
p237
(dp238
g72
I0
sg73
I0
ssS'a9'
p239
(dp240
g72
I0
sg73
I0
ssS'a8'
p241
(dp242
g72
I0
sg73
I0
ssS'i11'
p243
(dp244
g72
I0
sg73
I0
ssS'i10'
p245
(dp246
g72
I0
sg73
I0
ssg19
(dp247
g72
I0
sg73
I0
ssS'g12'
p248
(dp249
g72
I0
sg73
I0
ssg54
(dp250
g72
I0
sg73
I0
ssS'g10'
p251
(dp252
g72
I0
sg73
I0
sssS'tilepool'
p253
(lp254
g77
ag117
ag203
ag230
ag109
ag140
ag162
ag198
ag173
ag200
ag188
ag251
ag245
ag124
ag134
ag97
ag136
ag146
ag237
ag87
ag115
ag103
ag170
ag132
ag192
ag128
ag95
ag207
ag164
ag99
ag186
ag205
ag121
ag182
ag160
ag150
ag91
ag178
ag235
ag144
ag226
ag190
ag105
ag130
ag148
ag239
ag157
ag82
ag228
ag212
ag180
ag153
ag214
ag218
ag241
ag142
ag209
ag176
ag70
ag248
ag93
ag216
ag89
ag196
ag243
ag74
ag220
ag138
asS'cp'
p255
I1
sg5
(dp256
g7
I25
sg8
I25
sg9
I25
sg10
I25
sg11
I25
sg12
I25
sg13
I21
ss.